target datalayout = "e-m:e-p270:32:32-p271:32:32-p272:64:64-i64:64-i128:128-f80:128-n8:16:32:64-S128"
target triple = "x86_64-pc-linux-gnu"

@hf_mausb_ep_handle = internal global i32 0, align 4
@hf_mausb_ep_handle_d = internal global i32 0, align 4
@hf_mausb_ep_handle_ep_num = internal global i32 0, align 4
@hf_mausb_ep_handle_dev_addr = internal global i32 0, align 4
@hf_mausb_ep_handle_bus_num = internal global i32 0, align 4
@hf_mausb_stream_id = internal global i32 0, align 4
@hf_mausb_clear_transfers_info_block = internal global i32 0, align 4
@hf_mausb_clear_transfers_status_block = internal global i32 0, align 4
@hf_mausb_clear_transfers_req_num = internal global i32 0, align 4
@hf_mausb_clear_transfers_req_rsvd = internal global i32 0, align 4
@hf_mausb_clear_transfers_resp_num = internal global i32 0, align 4
@hf_mausb_clear_transfers_resp_rsvd = internal global i32 0, align 4
@hf_mausb_clear_transfers_status = internal global i32 0, align 4
@hf_mausb_clear_transfers_partial = internal global i32 0, align 4
@hf_mausb_clear_transfers_start_req_id = internal global i32 0, align 4
@hf_mausb_clear_transfers_last_req_id = internal global i32 0, align 4
@hf_mausb_clear_transfers_req_block_rsvd = internal global i32 0, align 4
@hf_mausb_clear_transfers_resp_block_rsvd = internal global i32 0, align 4
@hf_mausb_cancel_transfer_seq_num = internal global i32 0, align 4
@hf_mausb_cancel_transfer_byte_offset = internal global i32 0, align 4
@ett_mausb_ep_handle = internal global i32 0, align 4
@ett_clear_transfers_block = internal global i32 0, align 4

; Function Attrs: null_pointer_is_valid sspstrong uwtable
define internal i32 @dissect_ep_handle(ptr noundef %0, ptr noundef %1, i32 noundef %2) #1 {
  %4 = alloca ptr, align 8
  %5 = alloca ptr, align 8
  %6 = alloca i32, align 4
  %7 = alloca ptr, align 8
  %8 = alloca ptr, align 8
  store ptr %0, ptr %4, align 8
  store ptr %1, ptr %5, align 8
  store i32 %2, ptr %6, align 4
  call void @llvm.lifetime.start.p0(i64 8, ptr %7) #7
  call void @llvm.lifetime.start.p0(i64 8, ptr %8) #7
  %9 = load ptr, ptr %4, align 8
  %10 = load i32, ptr @hf_mausb_ep_handle, align 4
  %11 = load ptr, ptr %5, align 8
  %12 = load i32, ptr %6, align 4
  %13 = call ptr @proto_tree_add_item(ptr noundef %9, i32 noundef %10, ptr noundef %11, i32 noundef %12, i32 noundef 2, i32 noundef -2147483648)
  store ptr %13, ptr %7, align 8
  %14 = load ptr, ptr %7, align 8
  %15 = load i32, ptr @ett_mausb_ep_handle, align 4
  %16 = call ptr @proto_item_add_subtree(ptr noundef %14, i32 noundef %15)
  store ptr %16, ptr %8, align 8
  %17 = load ptr, ptr %8, align 8
  %18 = load i32, ptr @hf_mausb_ep_handle_d, align 4
  %19 = load ptr, ptr %5, align 8
  %20 = load i32, ptr %6, align 4
  %21 = call ptr @proto_tree_add_item(ptr noundef %17, i32 noundef %18, ptr noundef %19, i32 noundef %20, i32 noundef 2, i32 noundef -2147483648)
  %22 = load ptr, ptr %8, align 8
  %23 = load i32, ptr @hf_mausb_ep_handle_ep_num, align 4
  %24 = load ptr, ptr %5, align 8
  %25 = load i32, ptr %6, align 4
  %26 = call ptr @proto_tree_add_item(ptr noundef %22, i32 noundef %23, ptr noundef %24, i32 noundef %25, i32 noundef 2, i32 noundef -2147483648)
  %27 = load ptr, ptr %8, align 8
  %28 = load i32, ptr @hf_mausb_ep_handle_dev_addr, align 4
  %29 = load ptr, ptr %5, align 8
  %30 = load i32, ptr %6, align 4
  %31 = call ptr @proto_tree_add_item(ptr noundef %27, i32 noundef %28, ptr noundef %29, i32 noundef %30, i32 noundef 2, i32 noundef -2147483648)
  %32 = load ptr, ptr %8, align 8
  %33 = load i32, ptr @hf_mausb_ep_handle_bus_num, align 4
  %34 = load ptr, ptr %5, align 8
  %35 = load i32, ptr %6, align 4
  %36 = call ptr @proto_tree_add_item(ptr noundef %32, i32 noundef %33, ptr noundef %34, i32 noundef %35, i32 noundef 2, i32 noundef -2147483648)
  call void @llvm.lifetime.end.p0(i64 8, ptr %8) #7
  call void @llvm.lifetime.end.p0(i64 8, ptr %7) #7
  ret i32 2
}

; Function Attrs: null_pointer_is_valid sspstrong uwtable
define internal zeroext i16 @dissect_clear_transfers_block(ptr noundef %0, ptr noundef %1, i16 noundef signext %2, i1 noundef zeroext %3) #1 {
  %5 = alloca ptr, align 8
  %6 = alloca ptr, align 8
  %7 = alloca i16, align 2
  %8 = alloca i8, align 1
  %9 = alloca ptr, align 8
  %10 = alloca ptr, align 8
  store ptr %0, ptr %5, align 8
  store ptr %1, ptr %6, align 8
  store i16 %2, ptr %7, align 2
  %11 = zext i1 %3 to i8
  store i8 %11, ptr %8, align 1
  call void @llvm.lifetime.start.p0(i64 8, ptr %9) #7
  call void @llvm.lifetime.start.p0(i64 8, ptr %10) #7
  %12 = load i8, ptr %8, align 1, !range !8, !noundef !9
  %13 = trunc i8 %12 to i1
  br i1 %13, label %14, label %21

14:                                               ; preds = %4
  %15 = load ptr, ptr %5, align 8
  %16 = load i32, ptr @hf_mausb_clear_transfers_info_block, align 4
  %17 = load ptr, ptr %6, align 8
  %18 = load i16, ptr %7, align 2
  %19 = sext i16 %18 to i32
  %20 = call ptr @proto_tree_add_item(ptr noundef %15, i32 noundef %16, ptr noundef %17, i32 noundef %19, i32 noundef 8, i32 noundef 0)
  store ptr %20, ptr %9, align 8
  br label %28

21:                                               ; preds = %4
  %22 = load ptr, ptr %5, align 8
  %23 = load i32, ptr @hf_mausb_clear_transfers_status_block, align 4
  %24 = load ptr, ptr %6, align 8
  %25 = load i16, ptr %7, align 2
  %26 = sext i16 %25 to i32
  %27 = call ptr @proto_tree_add_item(ptr noundef %22, i32 noundef %23, ptr noundef %24, i32 noundef %26, i32 noundef 16, i32 noundef 0)
  store ptr %27, ptr %9, align 8
  br label %28

28:                                               ; preds = %21, %14
  %29 = load ptr, ptr %9, align 8
  %30 = load i32, ptr @ett_clear_transfers_block, align 4
  %31 = call ptr @proto_item_add_subtree(ptr noundef %29, i32 noundef %30)
  store ptr %31, ptr %10, align 8
  %32 = load ptr, ptr %10, align 8
  %33 = load ptr, ptr %6, align 8
  %34 = load i16, ptr %7, align 2
  %35 = sext i16 %34 to i32
  %36 = call i32 @dissect_ep_handle(ptr noundef %32, ptr noundef %33, i32 noundef %35)
  %37 = load i16, ptr %7, align 2
  %38 = sext i16 %37 to i32
  %39 = add i32 %38, %36
  %40 = trunc i32 %39 to i16
  store i16 %40, ptr %7, align 2
  %41 = load ptr, ptr %10, align 8
  %42 = load i32, ptr @hf_mausb_stream_id, align 4
  %43 = load ptr, ptr %6, align 8
  %44 = load i16, ptr %7, align 2
  %45 = sext i16 %44 to i32
  %46 = call ptr @proto_tree_add_item(ptr noundef %41, i32 noundef %42, ptr noundef %43, i32 noundef %45, i32 noundef 2, i32 noundef -2147483648)
  %47 = load i16, ptr %7, align 2
  %48 = sext i16 %47 to i32
  %49 = add i32 %48, 2
  %50 = trunc i32 %49 to i16
  store i16 %50, ptr %7, align 2
  %51 = load i8, ptr %8, align 1, !range !8, !noundef !9
  %52 = trunc i8 %51 to i1
  br i1 %52, label %53, label %74

53:                                               ; preds = %28
  %54 = load ptr, ptr %10, align 8
  %55 = load i32, ptr @hf_mausb_clear_transfers_start_req_id, align 4
  %56 = load ptr, ptr %6, align 8
  %57 = load i16, ptr %7, align 2
  %58 = sext i16 %57 to i32
  %59 = call ptr @proto_tree_add_item(ptr noundef %54, i32 noundef %55, ptr noundef %56, i32 noundef %58, i32 noundef 1, i32 noundef -2147483648)
  %60 = load i16, ptr %7, align 2
  %61 = sext i16 %60 to i32
  %62 = add i32 %61, 1
  %63 = trunc i32 %62 to i16
  store i16 %63, ptr %7, align 2
  %64 = load ptr, ptr %10, align 8
  %65 = load i32, ptr @hf_mausb_clear_transfers_req_block_rsvd, align 4
  %66 = load ptr, ptr %6, align 8
  %67 = load i16, ptr %7, align 2
  %68 = sext i16 %67 to i32
  %69 = call ptr @proto_tree_add_item(ptr noundef %64, i32 noundef %65, ptr noundef %66, i32 noundef %68, i32 noundef 3, i32 noundef 0)
  %70 = load i16, ptr %7, align 2
  %71 = sext i16 %70 to i32
  %72 = add i32 %71, 3
  %73 = trunc i32 %72 to i16
  store i16 %73, ptr %7, align 2
  br label %127

74:                                               ; preds = %28
  %75 = load ptr, ptr %10, align 8
  %76 = load i32, ptr @hf_mausb_clear_transfers_status, align 4
  %77 = load ptr, ptr %6, align 8
  %78 = load i16, ptr %7, align 2
  %79 = sext i16 %78 to i32
  %80 = call ptr @proto_tree_add_item(ptr noundef %75, i32 noundef %76, ptr noundef %77, i32 noundef %79, i32 noundef 4, i32 noundef -2147483648)
  %81 = load ptr, ptr %10, align 8
  %82 = load i32, ptr @hf_mausb_clear_transfers_partial, align 4
  %83 = load ptr, ptr %6, align 8
  %84 = load i16, ptr %7, align 2
  %85 = sext i16 %84 to i32
  %86 = call ptr @proto_tree_add_item(ptr noundef %81, i32 noundef %82, ptr noundef %83, i32 noundef %85, i32 noundef 4, i32 noundef -2147483648)
  %87 = load ptr, ptr %10, align 8
  %88 = load i32, ptr @hf_mausb_clear_transfers_resp_block_rsvd, align 4
  %89 = load ptr, ptr %6, align 8
  %90 = load i16, ptr %7, align 2
  %91 = sext i16 %90 to i32
  %92 = call ptr @proto_tree_add_item(ptr noundef %87, i32 noundef %88, ptr noundef %89, i32 noundef %91, i32 noundef 4, i32 noundef -2147483648)
  %93 = load i16, ptr %7, align 2
  %94 = sext i16 %93 to i32
  %95 = add i32 %94, 4
  %96 = trunc i32 %95 to i16
  store i16 %96, ptr %7, align 2
  %97 = load ptr, ptr %10, align 8
  %98 = load i32, ptr @hf_mausb_clear_transfers_last_req_id, align 4
  %99 = load ptr, ptr %6, align 8
  %100 = load i16, ptr %7, align 2
  %101 = sext i16 %100 to i32
  %102 = call ptr @proto_tree_add_item(ptr noundef %97, i32 noundef %98, ptr noundef %99, i32 noundef %101, i32 noundef 1, i32 noundef -2147483648)
  %103 = load i16, ptr %7, align 2
  %104 = sext i16 %103 to i32
  %105 = add i32 %104, 1
  %106 = trunc i32 %105 to i16
  store i16 %106, ptr %7, align 2
  %107 = load ptr, ptr %10, align 8
  %108 = load i32, ptr @hf_mausb_cancel_transfer_seq_num, align 4
  %109 = load ptr, ptr %6, align 8
  %110 = load i16, ptr %7, align 2
  %111 = sext i16 %110 to i32
  %112 = call ptr @proto_tree_add_item(ptr noundef %107, i32 noundef %108, ptr noundef %109, i32 noundef %111, i32 noundef 3, i32 noundef -2147483648)
  %113 = load i16, ptr %7, align 2
  %114 = sext i16 %113 to i32
  %115 = add i32 %114, 3
  %116 = trunc i32 %115 to i16
  store i16 %116, ptr %7, align 2
  %117 = load ptr, ptr %10, align 8
  %118 = load i32, ptr @hf_mausb_cancel_transfer_byte_offset, align 4
  %119 = load ptr, ptr %6, align 8
  %120 = load i16, ptr %7, align 2
  %121 = sext i16 %120 to i32
  %122 = call ptr @proto_tree_add_item(ptr noundef %117, i32 noundef %118, ptr noundef %119, i32 noundef %121, i32 noundef 4, i32 noundef -2147483648)
  %123 = load i16, ptr %7, align 2
  %124 = sext i16 %123 to i32
  %125 = add i32 %124, 4
  %126 = trunc i32 %125 to i16
  store i16 %126, ptr %7, align 2
  br label %127

127:                                              ; preds = %74, %53
  %128 = load i16, ptr %7, align 2
  call void @llvm.lifetime.end.p0(i64 8, ptr %10) #7
  call void @llvm.lifetime.end.p0(i64 8, ptr %9) #7
  ret i16 %128
}

; Function Attrs: null_pointer_is_valid sspstrong uwtable
define internal zeroext i16 @dissect_mausb_mgmt_pkt_clear_transfers(ptr noundef %0, ptr noundef %1, i16 noundef signext %2, i1 noundef zeroext %3) #1 {
  %5 = alloca ptr, align 8
  %6 = alloca ptr, align 8
  %7 = alloca i16, align 2
  %8 = alloca i8, align 1
  %9 = alloca i8, align 1
  %10 = alloca i32, align 4
  store ptr %0, ptr %5, align 8
  store ptr %1, ptr %6, align 8
  store i16 %2, ptr %7, align 2
  %11 = zext i1 %3 to i8
  store i8 %11, ptr %8, align 1
  call void @llvm.lifetime.start.p0(i64 1, ptr %9) #7
  call void @llvm.lifetime.start.p0(i64 4, ptr %10) #7
  %12 = load ptr, ptr %6, align 8
  %13 = load i16, ptr %7, align 2
  %14 = sext i16 %13 to i32
  %15 = call zeroext i8 @tvb_get_uint8(ptr noundef %12, i32 noundef %14)
  store i8 %15, ptr %9, align 1
  %16 = load i8, ptr %8, align 1, !range !8, !noundef !9
  %17 = trunc i8 %16 to i1
  br i1 %17, label %18, label %39

18:                                               ; preds = %4
  %19 = load ptr, ptr %5, align 8
  %20 = load i32, ptr @hf_mausb_clear_transfers_req_num, align 4
  %21 = load ptr, ptr %6, align 8
  %22 = load i16, ptr %7, align 2
  %23 = sext i16 %22 to i32
  %24 = call ptr @proto_tree_add_item(ptr noundef %19, i32 noundef %20, ptr noundef %21, i32 noundef %23, i32 noundef 1, i32 noundef -2147483648)
  %25 = load i16, ptr %7, align 2
  %26 = sext i16 %25 to i32
  %27 = add i32 %26, 1
  %28 = trunc i32 %27 to i16
  store i16 %28, ptr %7, align 2
  %29 = load ptr, ptr %5, align 8
  %30 = load i32, ptr @hf_mausb_clear_transfers_req_rsvd, align 4
  %31 = load ptr, ptr %6, align 8
  %32 = load i16, ptr %7, align 2
  %33 = sext i16 %32 to i32
  %34 = call ptr @proto_tree_add_item(ptr noundef %29, i32 noundef %30, ptr noundef %31, i32 noundef %33, i32 noundef 3, i32 noundef 0)
  %35 = load i16, ptr %7, align 2
  %36 = sext i16 %35 to i32
  %37 = add i32 %36, 3
  %38 = trunc i32 %37 to i16
  store i16 %38, ptr %7, align 2
  br label %60

39:                                               ; preds = %4
  %40 = load i8, ptr %9, align 1
  %41 = zext i8 %40 to i32
  %42 = and i32 %41, 31
  %43 = trunc i32 %42 to i8
  store i8 %43, ptr %9, align 1
  %44 = load ptr, ptr %5, align 8
  %45 = load i32, ptr @hf_mausb_clear_transfers_resp_num, align 4
  %46 = load ptr, ptr %6, align 8
  %47 = load i16, ptr %7, align 2
  %48 = sext i16 %47 to i32
  %49 = call ptr @proto_tree_add_item(ptr noundef %44, i32 noundef %45, ptr noundef %46, i32 noundef %48, i32 noundef 1, i32 noundef -2147483648)
  %50 = load ptr, ptr %5, align 8
  %51 = load i32, ptr @hf_mausb_clear_transfers_resp_rsvd, align 4
  %52 = load ptr, ptr %6, align 8
  %53 = load i16, ptr %7, align 2
  %54 = sext i16 %53 to i32
  %55 = call ptr @proto_tree_add_item(ptr noundef %50, i32 noundef %51, ptr noundef %52, i32 noundef %54, i32 noundef 1, i32 noundef -2147483648)
  %56 = load i16, ptr %7, align 2
  %57 = sext i16 %56 to i32
  %58 = add i32 %57, 4
  %59 = trunc i32 %58 to i16
  store i16 %59, ptr %7, align 2
  br label %60

60:                                               ; preds = %39, %18
  store i32 0, ptr %10, align 4
  br label %61

61:                                               ; preds = %73, %60
  %62 = load i32, ptr %10, align 4
  %63 = load i8, ptr %9, align 1
  %64 = zext i8 %63 to i32
  %65 = icmp slt i32 %62, %64
  br i1 %65, label %66, label %76

66:                                               ; preds = %61
  %67 = load ptr, ptr %5, align 8
  %68 = load ptr, ptr %6, align 8
  %69 = load i16, ptr %7, align 2
  %70 = load i8, ptr %8, align 1, !range !8, !noundef !9
  %71 = trunc i8 %70 to i1
  %72 = call zeroext i16 @dissect_clear_transfers_block(ptr noundef %67, ptr noundef %68, i16 noundef signext %69, i1 noundef zeroext %71)
  store i16 %72, ptr %7, align 2
  br label %73

73:                                               ; preds = %66
  %74 = load i32, ptr %10, align 4
  %75 = add i32 %74, 1
  store i32 %75, ptr %10, align 4
  br label %61, !llvm.loop !11

76:                                               ; preds = %61
  %77 = load i16, ptr %7, align 2
  call void @llvm.lifetime.end.p0(i64 4, ptr %10) #7
  call void @llvm.lifetime.end.p0(i64 1, ptr %9) #7
  ret i16 %77
}