; Function Attrs: null_pointer_is_valid sspstrong uwtable
define internal fastcc zeroext i16 @dissect_mausb_mgmt_pkt_clear_transfers(ptr noundef %0, ptr noundef %1, i16 noundef signext %2, i1 noundef zeroext %3) unnamed_addr #3 {
  %5 = sext i16 %2 to i32
  %6 = tail call zeroext i8 @tvb_get_uint8(ptr noundef %1, i32 noundef %5)
  br i1 %3, label %7, label %14

7:                                                ; preds = %4
  %8 = load i32, ptr @hf_mausb_clear_transfers_req_num, align 4
  %9 = tail call ptr @proto_tree_add_item(ptr noundef %0, i32 noundef %8, ptr noundef %1, i32 noundef %5, i32 noundef 1, i32 noundef -2147483648)
  %10 = add i16 %2, 1
  %11 = load i32, ptr @hf_mausb_clear_transfers_req_rsvd, align 4
  %12 = sext i16 %10 to i32
  %13 = tail call ptr @proto_tree_add_item(ptr noundef %0, i32 noundef %11, ptr noundef %1, i32 noundef %12, i32 noundef 3, i32 noundef 0)
  br label %20

14:                                               ; preds = %4
  %15 = and i8 %6, 31
  %16 = load i32, ptr @hf_mausb_clear_transfers_resp_num, align 4
  %17 = tail call ptr @proto_tree_add_item(ptr noundef %0, i32 noundef %16, ptr noundef %1, i32 noundef %5, i32 noundef 1, i32 noundef -2147483648)
  %18 = load i32, ptr @hf_mausb_clear_transfers_resp_rsvd, align 4
  %19 = tail call ptr @proto_tree_add_item(ptr noundef %0, i32 noundef %18, ptr noundef %1, i32 noundef %5, i32 noundef 1, i32 noundef -2147483648)
  br label %20

20:                                               ; preds = %14, %7
  %.026 = phi i8 [ %6, %7 ], [ %15, %14 ]
  %.027 = add i16 %2, 4
  %21 = zext i8 %.026 to i32
  %.not = icmp eq i8 %.026, 0
  br i1 %.not, label %._crit_edge, label %.lr.ph

.lr.ph:                                           ; preds = %20
  %..i = select i1 %3, i32 8, i32 16
  br label %22

22:                                               ; preds = %.lr.ph, %dissect_clear_transfers_block.exit
  %.029 = phi i32 [ 0, %.lr.ph ], [ %73, %dissect_clear_transfers_block.exit ]
  %.128 = phi i16 [ %.027, %.lr.ph ], [ %72, %dissect_clear_transfers_block.exit ]
  %23 = sext i16 %.128 to i32
  %hf_mausb_clear_transfers_info_block.val.i = load i32, ptr @hf_mausb_clear_transfers_info_block, align 4
  %hf_mausb_clear_transfers_status_block.val.i = load i32, ptr @hf_mausb_clear_transfers_status_block, align 4
  %24 = select i1 %3, i32 %hf_mausb_clear_transfers_info_block.val.i, i32 %hf_mausb_clear_transfers_status_block.val.i
  %25 = tail call ptr @proto_tree_add_item(ptr noundef %0, i32 noundef %24, ptr noundef %1, i32 noundef %23, i32 noundef %..i, i32 noundef 0)
  %26 = load i32, ptr @ett_clear_transfers_block, align 4
  %27 = tail call ptr @proto_item_add_subtree(ptr noundef %25, i32 noundef %26)
  %28 = load i32, ptr @hf_mausb_ep_handle, align 4
  %29 = tail call ptr @proto_tree_add_item(ptr noundef %27, i32 noundef %28, ptr noundef %1, i32 noundef range(i32 -32768, 65536) %23, i32 noundef 2, i32 noundef -2147483648)
  %30 = load i32, ptr @ett_mausb_ep_handle, align 4
  %31 = tail call ptr @proto_item_add_subtree(ptr noundef %29, i32 noundef %30)
  %32 = load i32, ptr @hf_mausb_ep_handle_d, align 4
  %33 = tail call ptr @proto_tree_add_item(ptr noundef %31, i32 noundef %32, ptr noundef %1, i32 noundef range(i32 -32768, 65536) %23, i32 noundef 2, i32 noundef -2147483648)
  %34 = load i32, ptr @hf_mausb_ep_handle_ep_num, align 4
  %35 = tail call ptr @proto_tree_add_item(ptr noundef %31, i32 noundef %34, ptr noundef %1, i32 noundef range(i32 -32768, 65536) %23, i32 noundef 2, i32 noundef -2147483648)
  %36 = load i32, ptr @hf_mausb_ep_handle_dev_addr, align 4
  %37 = tail call ptr @proto_tree_add_item(ptr noundef %31, i32 noundef %36, ptr noundef %1, i32 noundef range(i32 -32768, 65536) %23, i32 noundef 2, i32 noundef -2147483648)
  %38 = load i32, ptr @hf_mausb_ep_handle_bus_num, align 4
  %39 = tail call ptr @proto_tree_add_item(ptr noundef %31, i32 noundef %38, ptr noundef %1, i32 noundef range(i32 -32768, 65536) %23, i32 noundef 2, i32 noundef -2147483648)
  %40 = add i16 %.128, 2
  %41 = load i32, ptr @hf_mausb_stream_id, align 4
  %42 = sext i16 %40 to i32
  %43 = tail call ptr @proto_tree_add_item(ptr noundef %27, i32 noundef %41, ptr noundef %1, i32 noundef %42, i32 noundef 2, i32 noundef -2147483648)
  %44 = add i16 %.128, 4
  %45 = sext i16 %44 to i32
  br i1 %3, label %46, label %53

46:                                               ; preds = %22
  %47 = load i32, ptr @hf_mausb_clear_transfers_start_req_id, align 4
  %48 = tail call ptr @proto_tree_add_item(ptr noundef %27, i32 noundef %47, ptr noundef %1, i32 noundef %45, i32 noundef 1, i32 noundef -2147483648)
  %49 = add i16 %.128, 5
  %50 = load i32, ptr @hf_mausb_clear_transfers_req_block_rsvd, align 4
  %51 = sext i16 %49 to i32
  %52 = tail call ptr @proto_tree_add_item(ptr noundef %27, i32 noundef %50, ptr noundef %1, i32 noundef %51, i32 noundef 3, i32 noundef 0)
  br label %dissect_clear_transfers_block.exit

53:                                               ; preds = %22
  %54 = load i32, ptr @hf_mausb_clear_transfers_status, align 4
  %55 = tail call ptr @proto_tree_add_item(ptr noundef %27, i32 noundef %54, ptr noundef %1, i32 noundef %45, i32 noundef 4, i32 noundef -2147483648)
  %56 = load i32, ptr @hf_mausb_clear_transfers_partial, align 4
  %57 = tail call ptr @proto_tree_add_item(ptr noundef %27, i32 noundef %56, ptr noundef %1, i32 noundef %45, i32 noundef 4, i32 noundef -2147483648)
  %58 = load i32, ptr @hf_mausb_clear_transfers_resp_block_rsvd, align 4
  %59 = tail call ptr @proto_tree_add_item(ptr noundef %27, i32 noundef %58, ptr noundef %1, i32 noundef %45, i32 noundef 4, i32 noundef -2147483648)
  %60 = add i16 %.128, 8
  %61 = load i32, ptr @hf_mausb_clear_transfers_last_req_id, align 4
  %62 = sext i16 %60 to i32
  %63 = tail call ptr @proto_tree_add_item(ptr noundef %27, i32 noundef %61, ptr noundef %1, i32 noundef %62, i32 noundef 1, i32 noundef -2147483648)
  %64 = add i16 %.128, 9
  %65 = load i32, ptr @hf_mausb_cancel_transfer_seq_num, align 4
  %66 = sext i16 %64 to i32
  %67 = tail call ptr @proto_tree_add_item(ptr noundef %27, i32 noundef %65, ptr noundef %1, i32 noundef %66, i32 noundef 3, i32 noundef -2147483648)
  %68 = add i16 %.128, 12
  %69 = load i32, ptr @hf_mausb_cancel_transfer_byte_offset, align 4
  %70 = sext i16 %68 to i32
  %71 = tail call ptr @proto_tree_add_item(ptr noundef %27, i32 noundef %69, ptr noundef %1, i32 noundef %70, i32 noundef 4, i32 noundef -2147483648)
  br label %dissect_clear_transfers_block.exit

dissect_clear_transfers_block.exit:               ; preds = %46, %53
  %.sink.i = phi i16 [ 16, %53 ], [ 8, %46 ]
  %72 = add i16 %.sink.i, %.128
  %73 = add nuw nsw i32 %.029, 1
  %exitcond.not = icmp eq i32 %73, %21
  br i1 %exitcond.not, label %._crit_edge, label %22, !llvm.loop !9

._crit_edge:                                      ; preds = %dissect_clear_transfers_block.exit, %20
  %.1.lcssa = phi i16 [ %.027, %20 ], [ %72, %dissect_clear_transfers_block.exit ]
  ret i16 %.1.lcssa
}